target datalayout = "e-m:e-p270:32:32-p271:32:32-p272:64:64-i64:64-i128:128-f80:128-n8:16:32:64-S128"
target triple = "x86_64-pc-linux-gnu"

%struct.ossl_param_st = type { ptr, i32, ptr, i64, i64 }

@lib_ctx = internal global ptr null, align 8
@.str.29 = private unnamed_addr constant [30 x i8] c"../openssl/test/ml_dsa_test.c\00", align 1
@.str.33 = private unnamed_addr constant [5 x i8] c"priv\00", align 1
@.str.35 = private unnamed_addr constant [4 x i8] c"pub\00", align 1
@.str.44 = private unnamed_addr constant [2 x i8] c"1\00", align 1
@.str.65 = private unnamed_addr constant [54 x i8] c"ctx = EVP_PKEY_CTX_new_from_name(lib_ctx, name, NULL)\00", align 1
@.str.66 = private unnamed_addr constant [28 x i8] c"EVP_PKEY_fromdata_init(ctx)\00", align 1
@.str.67 = private unnamed_addr constant [48 x i8] c"EVP_PKEY_fromdata(ctx, pkey, selection, params)\00", align 1
@.str.68 = private unnamed_addr constant [9 x i8] c"expected\00", align 1

; Function Attrs: nounwind uwtable
define internal i32 @ml_dsa_create_keypair(ptr noundef %0, ptr noundef %1, ptr noundef %2, i64 noundef %3, ptr noundef %4, i64 noundef %5, i32 noundef %6) #0 {
  %8 = alloca ptr, align 8
  %9 = alloca ptr, align 8
  %10 = alloca ptr, align 8
  %11 = alloca i64, align 8
  %12 = alloca ptr, align 8
  %13 = alloca i64, align 8
  %14 = alloca i32, align 4
  %15 = alloca i32, align 4
  %16 = alloca i32, align 4
  %17 = alloca ptr, align 8
  %18 = alloca [3 x %struct.ossl_param_st], align 16
  %19 = alloca ptr, align 8
  %20 = alloca %struct.ossl_param_st, align 8
  %21 = alloca %struct.ossl_param_st, align 8
  %22 = alloca %struct.ossl_param_st, align 8
  store ptr %0, ptr %8, align 8, !tbaa !75
  store ptr %1, ptr %9, align 8, !tbaa !4
  store ptr %2, ptr %10, align 8, !tbaa !4
  store i64 %3, ptr %11, align 8, !tbaa !22
  store ptr %4, ptr %12, align 8, !tbaa !4
  store i64 %5, ptr %13, align 8, !tbaa !22
  store i32 %6, ptr %14, align 4, !tbaa !9
  call void @llvm.lifetime.start.p0(i64 4, ptr %15) #4
  store i32 0, ptr %15, align 4, !tbaa !9
  call void @llvm.lifetime.start.p0(i64 4, ptr %16) #4
  store i32 0, ptr %16, align 4, !tbaa !9
  call void @llvm.lifetime.start.p0(i64 8, ptr %17) #4
  store ptr null, ptr %17, align 8, !tbaa !29
  call void @llvm.lifetime.start.p0(i64 120, ptr %18) #4
  call void @llvm.lifetime.start.p0(i64 8, ptr %19) #4
  %23 = getelementptr inbounds [3 x %struct.ossl_param_st], ptr %18, i64 0, i64 0
  store ptr %23, ptr %19, align 8, !tbaa !33
  %24 = load ptr, ptr %10, align 8, !tbaa !4
  %25 = icmp ne ptr %24, null
  br i1 %25, label %26, label %31

26:                                               ; preds = %7
  %27 = load ptr, ptr %19, align 8, !tbaa !33
  %28 = getelementptr inbounds nuw %struct.ossl_param_st, ptr %27, i32 1
  store ptr %28, ptr %19, align 8, !tbaa !33
  call void @llvm.lifetime.start.p0(i64 40, ptr %20) #4
  %29 = load ptr, ptr %10, align 8, !tbaa !4
  %30 = load i64, ptr %11, align 8, !tbaa !22
  call void @OSSL_PARAM_construct_octet_string(ptr dead_on_unwind writable sret(%struct.ossl_param_st) align 8 %20, ptr noundef @.str.33, ptr noundef %29, i64 noundef %30)
  call void @llvm.memcpy.p0.p0.i64(ptr align 8 %27, ptr align 8 %20, i64 40, i1 false), !tbaa.struct !35
  call void @llvm.lifetime.end.p0(i64 40, ptr %20) #4
  store i32 1, ptr %16, align 4, !tbaa !9
  br label %31

31:                                               ; preds = %26, %7
  %32 = load ptr, ptr %12, align 8, !tbaa !4
  %33 = icmp ne ptr %32, null
  br i1 %33, label %34, label %41

34:                                               ; preds = %31
  %35 = load ptr, ptr %19, align 8, !tbaa !33
  %36 = getelementptr inbounds nuw %struct.ossl_param_st, ptr %35, i32 1
  store ptr %36, ptr %19, align 8, !tbaa !33
  call void @llvm.lifetime.start.p0(i64 40, ptr %21) #4
  %37 = load ptr, ptr %12, align 8, !tbaa !4
  %38 = load i64, ptr %13, align 8, !tbaa !22
  call void @OSSL_PARAM_construct_octet_string(ptr dead_on_unwind writable sret(%struct.ossl_param_st) align 8 %21, ptr noundef @.str.35, ptr noundef %37, i64 noundef %38)
  call void @llvm.memcpy.p0.p0.i64(ptr align 8 %35, ptr align 8 %21, i64 40, i1 false), !tbaa.struct !35
  call void @llvm.lifetime.end.p0(i64 40, ptr %21) #4
  %39 = load i32, ptr %16, align 4, !tbaa !9
  %40 = or i32 %39, 2
  store i32 %40, ptr %16, align 4, !tbaa !9
  br label %41

41:                                               ; preds = %34, %31
  %42 = load ptr, ptr %19, align 8, !tbaa !33
  call void @llvm.lifetime.start.p0(i64 40, ptr %22) #4
  call void @OSSL_PARAM_construct_end(ptr dead_on_unwind writable sret(%struct.ossl_param_st) align 8 %22)
  call void @llvm.memcpy.p0.p0.i64(ptr align 8 %42, ptr align 8 %22, i64 40, i1 false), !tbaa.struct !35
  call void @llvm.lifetime.end.p0(i64 40, ptr %22) #4
  %43 = load ptr, ptr @lib_ctx, align 8, !tbaa !43
  %44 = load ptr, ptr %9, align 8, !tbaa !4
  %45 = call ptr @EVP_PKEY_CTX_new_from_name(ptr noundef %43, ptr noundef %44, ptr noundef null)
  store ptr %45, ptr %17, align 8, !tbaa !29
  %46 = call i32 @test_ptr(ptr noundef @.str.29, i32 noundef 73, ptr noundef @.str.65, ptr noundef %45)
  %47 = icmp ne i32 %46, 0
  br i1 %47, label %48, label %62

48:                                               ; preds = %41
  %49 = load ptr, ptr %17, align 8, !tbaa !29
  %50 = call i32 @EVP_PKEY_fromdata_init(ptr noundef %49)
  %51 = call i32 @test_int_eq(ptr noundef @.str.29, i32 noundef 74, ptr noundef @.str.66, ptr noundef @.str.44, i32 noundef %50, i32 noundef 1)
  %52 = icmp ne i32 %51, 0
  br i1 %52, label %53, label %62

53:                                               ; preds = %48
  %54 = load ptr, ptr %17, align 8, !tbaa !29
  %55 = load ptr, ptr %8, align 8, !tbaa !75
  %56 = load i32, ptr %16, align 4, !tbaa !9
  %57 = getelementptr inbounds [3 x %struct.ossl_param_st], ptr %18, i64 0, i64 0
  %58 = call i32 @EVP_PKEY_fromdata(ptr noundef %54, ptr noundef %55, i32 noundef %56, ptr noundef %57)
  %59 = load i32, ptr %14, align 4, !tbaa !9
  %60 = call i32 @test_int_eq(ptr noundef @.str.29, i32 noundef 76, ptr noundef @.str.67, ptr noundef @.str.68, i32 noundef %58, i32 noundef %59)
  %61 = icmp ne i32 %60, 0
  br i1 %61, label %63, label %62

62:                                               ; preds = %53, %48, %41
  br label %64

63:                                               ; preds = %53
  store i32 1, ptr %15, align 4, !tbaa !9
  br label %64

64:                                               ; preds = %63, %62
  %65 = load ptr, ptr %17, align 8, !tbaa !29
  call void @EVP_PKEY_CTX_free(ptr noundef %65)
  %66 = load i32, ptr %15, align 4, !tbaa !9
  call void @llvm.lifetime.end.p0(i64 8, ptr %19) #4
  call void @llvm.lifetime.end.p0(i64 120, ptr %18) #4
  call void @llvm.lifetime.end.p0(i64 8, ptr %17) #4
  call void @llvm.lifetime.end.p0(i64 4, ptr %16) #4
  call void @llvm.lifetime.end.p0(i64 4, ptr %15) #4
  ret i32 %66
}