; Function Attrs: nounwind uwtable
define internal fastcc range(i32 0, 2) i32 @ml_dsa_create_keypair(ptr noundef nonnull %0, ptr noundef %1, ptr noundef %2, i64 noundef %3, ptr noundef %4, i64 noundef %5, i32 noundef range(i32 0, 2) %6) unnamed_addr #1 {
  %8 = alloca [3 x %struct.ossl_param_st], align 16
  %9 = alloca %struct.ossl_param_st, align 8
  %10 = alloca %struct.ossl_param_st, align 8
  call void @llvm.lifetime.start.p0(i64 120, ptr nonnull %8) #5
  %.not = icmp eq ptr %2, null
  br i1 %.not, label %13, label %11

11:                                               ; preds = %7
  %12 = getelementptr inbounds nuw i8, ptr %8, i64 40
  call void @OSSL_PARAM_construct_octet_string(ptr dead_on_unwind nonnull writable sret(%struct.ossl_param_st) align 8 %8, ptr noundef nonnull @.str.33, ptr noundef nonnull %2, i64 noundef %3) #5
  br label %13

13:                                               ; preds = %11, %7
  %.017 = phi i32 [ 1, %11 ], [ 0, %7 ]
  %.0 = phi ptr [ %12, %11 ], [ %8, %7 ]
  %.not22 = icmp eq ptr %4, null
  br i1 %.not22, label %17, label %14

14:                                               ; preds = %13
  %15 = getelementptr inbounds nuw i8, ptr %.0, i64 40
  call void @llvm.lifetime.start.p0(i64 40, ptr nonnull %9) #5
  call void @OSSL_PARAM_construct_octet_string(ptr dead_on_unwind nonnull writable sret(%struct.ossl_param_st) align 8 %9, ptr noundef nonnull @.str.35, ptr noundef nonnull %4, i64 noundef %5) #5
  call void @llvm.memcpy.p0.p0.i64(ptr noundef nonnull align 8 dereferenceable(40) %.0, ptr noundef nonnull align 8 dereferenceable(40) %9, i64 40, i1 false), !tbaa.struct !20
  call void @llvm.lifetime.end.p0(i64 40, ptr nonnull %9) #5
  %16 = or disjoint i32 %.017, 2
  br label %17

17:                                               ; preds = %14, %13
  %.118 = phi i32 [ %16, %14 ], [ %.017, %13 ]
  %.1 = phi ptr [ %15, %14 ], [ %.0, %13 ]
  call void @llvm.lifetime.start.p0(i64 40, ptr nonnull %10) #5
  call void @OSSL_PARAM_construct_end(ptr dead_on_unwind nonnull writable sret(%struct.ossl_param_st) align 8 %10) #5
  call void @llvm.memcpy.p0.p0.i64(ptr noundef nonnull align 8 dereferenceable(40) %.1, ptr noundef nonnull align 8 dereferenceable(40) %10, i64 40, i1 false), !tbaa.struct !20
  call void @llvm.lifetime.end.p0(i64 40, ptr nonnull %10) #5
  %18 = load ptr, ptr @lib_ctx, align 8, !tbaa !27
  %19 = call ptr @EVP_PKEY_CTX_new_from_name(ptr noundef %18, ptr noundef %1, ptr noundef null) #5
  %20 = call i32 @test_ptr(ptr noundef nonnull @.str.29, i32 noundef 73, ptr noundef nonnull @.str.65, ptr noundef %19) #5
  %.not23 = icmp eq i32 %20, 0
  br i1 %.not23, label %27, label %21

21:                                               ; preds = %17
  %22 = call i32 @EVP_PKEY_fromdata_init(ptr noundef %19) #5
  %23 = call i32 @test_int_eq(ptr noundef nonnull @.str.29, i32 noundef 74, ptr noundef nonnull @.str.66, ptr noundef nonnull @.str.44, i32 noundef %22, i32 noundef 1) #5
  %.not24 = icmp eq i32 %23, 0
  br i1 %.not24, label %27, label %24

24:                                               ; preds = %21
  %25 = call i32 @EVP_PKEY_fromdata(ptr noundef %19, ptr noundef nonnull %0, i32 noundef %.118, ptr noundef nonnull %8) #5
  %26 = call i32 @test_int_eq(ptr noundef nonnull @.str.29, i32 noundef 76, ptr noundef nonnull @.str.67, ptr noundef nonnull @.str.68, i32 noundef %25, i32 noundef %6) #5
  %.not25 = icmp ne i32 %26, 0
  %spec.select = zext i1 %.not25 to i32
  br label %27

27:                                               ; preds = %24, %17, %21
  %.019 = phi i32 [ 0, %21 ], [ 0, %17 ], [ %spec.select, %24 ]
  call void @EVP_PKEY_CTX_free(ptr noundef %19) #5
  call void @llvm.lifetime.end.p0(i64 120, ptr nonnull %8) #5
  ret i32 %.019
}